; Function Attrs: mustprogress nofree norecurse nosync nounwind willreturn memory(none) uwtable
define zeroext range(i8 0, 2) i8 @l_Std_Tactic_BVDecide_LRAT_Internal_Assignment_hasAssignment(i8 noundef zeroext %0, i8 noundef zeroext %1) local_unnamed_addr #0 {
  %3 = icmp eq i8 %0, 0
  br i1 %3, label %4, label %6

4:                                                ; preds = %2
  %5 = add i8 %1, -1
  %switch = icmp ult i8 %5, 2
  br label %lean_dec.exit13

6:                                                ; preds = %2
  %7 = zext i8 %1 to i32
  %8 = add nsw i32 %7, -1
  %switch.and = and i32 %8, -3
  %switch.selectcmp = icmp ne i32 %switch.and, 0
  br label %lean_dec.exit13

lean_dec.exit13:                                  ; preds = %4, %6
  %.1.in = phi i1 [ %switch, %4 ], [ %switch.selectcmp, %6 ]
  %.1 = zext i1 %.1.in to i8
  ret i8 %.1
}